; Function Attrs: mustprogress nounwind uwtable
define hidden noundef double @_ZNK11G1Analytics25predict_card_scan_time_msEmb(ptr noundef nonnull align 8 dereferenceable(2048) %0, i64 noundef %1, i1 noundef zeroext %2) local_unnamed_addr #1 align 2 {
  %4 = uitofp i64 %1 to double
  %5 = getelementptr inbounds i8, ptr %0, i64 664
  %6 = load ptr, ptr %0, align 8
  %7 = tail call noundef double @_ZNK19G1PhaseDependentSeq7predictEPK13G1Predictionsb(ptr noundef nonnull align 8 dereferenceable(144) %5, ptr noundef %6, i1 noundef zeroext %2)
  %8 = fcmp ogt double %7, 0.000000e+00
  %9 = select i1 %8, double %7, double 0.000000e+00
  %10 = fmul double %9, %4
  ret double %10
}